; Function Attrs: mustprogress nounwind uwtable
define dso_local void @_ZN4pbrt19ParameterDictionary10RemoveBoolERKNSt7__cxx1112basic_stringIcSt11char_traitsIcESaIcEEE(ptr noundef nonnull align 8 dereferenceable(108) %0, ptr noundef nonnull readonly align 8 captures(none) dereferenceable(32) %1) local_unnamed_addr #3 align 2 {
  %3 = getelementptr inbounds nuw i8, ptr %0, i64 8
  %4 = getelementptr inbounds nuw i8, ptr %0, i64 16
  %5 = getelementptr inbounds nuw i8, ptr %0, i64 88
  %6 = load i64, ptr %5, align 8, !tbaa !15
  %.not14.i = icmp eq i64 %6, 0
  br i1 %.not14.i, label %_ZN4pbrt19ParameterDictionary6removeERKNSt7__cxx1112basic_stringIcSt11char_traitsIcESaIcEEEPKc.exit, label %.lr.ph.i

.lr.ph.i:                                         ; preds = %2
  %7 = load ptr, ptr %3, align 8, !tbaa !9
  %.not.i.i = icmp eq ptr %7, null
  %8 = select i1 %.not.i.i, ptr %4, ptr %7
  %9 = getelementptr inbounds nuw i8, ptr %1, i64 8
  br label %10

10:                                               ; preds = %_ZSteqIcEN9__gnu_cxx11__enable_ifIXsr9__is_charIT_EE7__valueEbE6__typeERKNSt7__cxx1112basic_stringIS2_St11char_traitsIS2_ESaIS2_EEESC_.exit.thread10.i, %.lr.ph.i
  %11 = phi i64 [ %6, %.lr.ph.i ], [ %38, %_ZSteqIcEN9__gnu_cxx11__enable_ifIXsr9__is_charIT_EE7__valueEbE6__typeERKNSt7__cxx1112basic_stringIS2_St11char_traitsIS2_ESaIS2_EEESC_.exit.thread10.i ]
  %12 = phi ptr [ %7, %.lr.ph.i ], [ %39, %_ZSteqIcEN9__gnu_cxx11__enable_ifIXsr9__is_charIT_EE7__valueEbE6__typeERKNSt7__cxx1112basic_stringIS2_St11char_traitsIS2_ESaIS2_EEESC_.exit.thread10.i ]
  %.015.i = phi ptr [ %8, %.lr.ph.i ], [ %40, %_ZSteqIcEN9__gnu_cxx11__enable_ifIXsr9__is_charIT_EE7__valueEbE6__typeERKNSt7__cxx1112basic_stringIS2_St11char_traitsIS2_ESaIS2_EEESC_.exit.thread10.i ]
  %13 = load ptr, ptr %.015.i, align 8, !tbaa !17
  %14 = getelementptr inbounds nuw i8, ptr %13, i64 32
  %15 = getelementptr inbounds nuw i8, ptr %13, i64 40
  %16 = load i64, ptr %15, align 8, !tbaa !33
  %17 = load i64, ptr %9, align 8, !tbaa !33
  %18 = icmp eq i64 %16, %17
  br i1 %18, label %19, label %_ZSteqIcEN9__gnu_cxx11__enable_ifIXsr9__is_charIT_EE7__valueEbE6__typeERKNSt7__cxx1112basic_stringIS2_St11char_traitsIS2_ESaIS2_EEESC_.exit.thread10.i

19:                                               ; preds = %10
  %20 = icmp eq i64 %16, 0
  br i1 %20, label %_ZSteqIcEN9__gnu_cxx11__enable_ifIXsr9__is_charIT_EE7__valueEbE6__typeERKNSt7__cxx1112basic_stringIS2_St11char_traitsIS2_ESaIS2_EEESC_.exit.thread.i, label %_ZSteqIcEN9__gnu_cxx11__enable_ifIXsr9__is_charIT_EE7__valueEbE6__typeERKNSt7__cxx1112basic_stringIS2_St11char_traitsIS2_ESaIS2_EEESC_.exit.i

_ZSteqIcEN9__gnu_cxx11__enable_ifIXsr9__is_charIT_EE7__valueEbE6__typeERKNSt7__cxx1112basic_stringIS2_St11char_traitsIS2_ESaIS2_EEESC_.exit.i: ; preds = %19
  %21 = load ptr, ptr %1, align 8, !tbaa !36
  %22 = load ptr, ptr %14, align 8, !tbaa !36
  %bcmp.i.i = tail call i32 @bcmp(ptr %22, ptr %21, i64 %16)
  %23 = icmp eq i32 %bcmp.i.i, 0
  br i1 %23, label %_ZSteqIcEN9__gnu_cxx11__enable_ifIXsr9__is_charIT_EE7__valueEbE6__typeERKNSt7__cxx1112basic_stringIS2_St11char_traitsIS2_ESaIS2_EEESC_.exit.thread.i, label %_ZSteqIcEN9__gnu_cxx11__enable_ifIXsr9__is_charIT_EE7__valueEbE6__typeERKNSt7__cxx1112basic_stringIS2_St11char_traitsIS2_ESaIS2_EEESC_.exit.thread10.i

_ZSteqIcEN9__gnu_cxx11__enable_ifIXsr9__is_charIT_EE7__valueEbE6__typeERKNSt7__cxx1112basic_stringIS2_St11char_traitsIS2_ESaIS2_EEESC_.exit.thread.i: ; preds = %_ZSteqIcEN9__gnu_cxx11__enable_ifIXsr9__is_charIT_EE7__valueEbE6__typeERKNSt7__cxx1112basic_stringIS2_St11char_traitsIS2_ESaIS2_EEESC_.exit.i, %19
  %24 = tail call noundef i32 @_ZNKSt7__cxx1112basic_stringIcSt11char_traitsIcESaIcEE7compareEPKc(ptr noundef nonnull align 8 dereferenceable(32) %13, ptr noundef nonnull @_ZN4pbrt19ParameterTypeTraitsILNS_13ParameterTypeE0EE8typeNameE) #29
  %25 = icmp eq i32 %24, 0
  %.pre.i = load ptr, ptr %3, align 8, !tbaa !9
  br i1 %25, label %26, label %_ZSteqIcEN9__gnu_cxx11__enable_ifIXsr9__is_charIT_EE7__valueEbE6__typeERKNSt7__cxx1112basic_stringIS2_St11char_traitsIS2_ESaIS2_EEESC_.exit.thread._ZSteqIcEN9__gnu_cxx11__enable_ifIXsr9__is_charIT_EE7__valueEbE6__typeERKNSt7__cxx1112basic_stringIS2_St11char_traitsIS2_ESaIS2_EEESC_.exit.thread10_crit_edge.i

_ZSteqIcEN9__gnu_cxx11__enable_ifIXsr9__is_charIT_EE7__valueEbE6__typeERKNSt7__cxx1112basic_stringIS2_St11char_traitsIS2_ESaIS2_EEESC_.exit.thread._ZSteqIcEN9__gnu_cxx11__enable_ifIXsr9__is_charIT_EE7__valueEbE6__typeERKNSt7__cxx1112basic_stringIS2_St11char_traitsIS2_ESaIS2_EEESC_.exit.thread10_crit_edge.i: ; preds = %_ZSteqIcEN9__gnu_cxx11__enable_ifIXsr9__is_charIT_EE7__valueEbE6__typeERKNSt7__cxx1112basic_stringIS2_St11char_traitsIS2_ESaIS2_EEESC_.exit.thread.i
  %.pre19.i = load i64, ptr %5, align 8, !tbaa !15
  br label %_ZSteqIcEN9__gnu_cxx11__enable_ifIXsr9__is_charIT_EE7__valueEbE6__typeERKNSt7__cxx1112basic_stringIS2_St11char_traitsIS2_ESaIS2_EEESC_.exit.thread10.i

26:                                               ; preds = %_ZSteqIcEN9__gnu_cxx11__enable_ifIXsr9__is_charIT_EE7__valueEbE6__typeERKNSt7__cxx1112basic_stringIS2_St11char_traitsIS2_ESaIS2_EEESC_.exit.thread.i
  %.not.i.i8.i = icmp eq ptr %.pre.i, null
  %27 = select i1 %.not.i.i8.i, ptr %4, ptr %.pre.i
  %28 = load i64, ptr %5, align 8, !tbaa !15
  %29 = getelementptr inbounds nuw ptr, ptr %27, i64 %28
  %30 = getelementptr inbounds i8, ptr %29, i64 -8
  %.not12.i.i = icmp eq ptr %.015.i, %30
  br i1 %.not12.i.i, label %_ZN4pbrt13InlinedVectorIPNS_15ParsedParameterELi8EN4pstd3pmr21polymorphic_allocatorIS2_EEE5eraseEPKS2_.exit.i, label %.lr.ph.i.preheader.i

.lr.ph.i.preheader.i:                             ; preds = %26
  %31 = ptrtoint ptr %.015.i to i64
  %32 = ptrtoint ptr %27 to i64
  %33 = sub i64 %31, %32
  %34 = getelementptr inbounds i8, ptr %27, i64 %33
  br label %.lr.ph.i.i

.lr.ph.i.i:                                       ; preds = %.lr.ph.i.i, %.lr.ph.i.preheader.i
  %.013.i.i = phi ptr [ %35, %.lr.ph.i.i ], [ %34, %.lr.ph.i.preheader.i ]
  %35 = getelementptr inbounds nuw i8, ptr %.013.i.i, i64 8
  %36 = load ptr, ptr %35, align 8, !tbaa !17
  store ptr %36, ptr %.013.i.i, align 8, !tbaa !17
  %.not.i9.i = icmp eq ptr %35, %30
  br i1 %.not.i9.i, label %_ZN4pbrt13InlinedVectorIPNS_15ParsedParameterELi8EN4pstd3pmr21polymorphic_allocatorIS2_EEE5eraseEPKS2_.exit.i, label %.lr.ph.i.i, !llvm.loop !291

_ZN4pbrt13InlinedVectorIPNS_15ParsedParameterELi8EN4pstd3pmr21polymorphic_allocatorIS2_EEE5eraseEPKS2_.exit.i: ; preds = %.lr.ph.i.i, %26
  %37 = add i64 %28, -1
  store i64 %37, ptr %5, align 8, !tbaa !15
  br label %_ZN4pbrt19ParameterDictionary6removeERKNSt7__cxx1112basic_stringIcSt11char_traitsIcESaIcEEEPKc.exit

_ZSteqIcEN9__gnu_cxx11__enable_ifIXsr9__is_charIT_EE7__valueEbE6__typeERKNSt7__cxx1112basic_stringIS2_St11char_traitsIS2_ESaIS2_EEESC_.exit.thread10.i: ; preds = %_ZSteqIcEN9__gnu_cxx11__enable_ifIXsr9__is_charIT_EE7__valueEbE6__typeERKNSt7__cxx1112basic_stringIS2_St11char_traitsIS2_ESaIS2_EEESC_.exit.thread._ZSteqIcEN9__gnu_cxx11__enable_ifIXsr9__is_charIT_EE7__valueEbE6__typeERKNSt7__cxx1112basic_stringIS2_St11char_traitsIS2_ESaIS2_EEESC_.exit.thread10_crit_edge.i, %_ZSteqIcEN9__gnu_cxx11__enable_ifIXsr9__is_charIT_EE7__valueEbE6__typeERKNSt7__cxx1112basic_stringIS2_St11char_traitsIS2_ESaIS2_EEESC_.exit.i, %10
  %38 = phi i64 [ %11, %10 ], [ %11, %_ZSteqIcEN9__gnu_cxx11__enable_ifIXsr9__is_charIT_EE7__valueEbE6__typeERKNSt7__cxx1112basic_stringIS2_St11char_traitsIS2_ESaIS2_EEESC_.exit.i ], [ %.pre19.i, %_ZSteqIcEN9__gnu_cxx11__enable_ifIXsr9__is_charIT_EE7__valueEbE6__typeERKNSt7__cxx1112basic_stringIS2_St11char_traitsIS2_ESaIS2_EEESC_.exit.thread._ZSteqIcEN9__gnu_cxx11__enable_ifIXsr9__is_charIT_EE7__valueEbE6__typeERKNSt7__cxx1112basic_stringIS2_St11char_traitsIS2_ESaIS2_EEESC_.exit.thread10_crit_edge.i ]
  %39 = phi ptr [ %12, %10 ], [ %12, %_ZSteqIcEN9__gnu_cxx11__enable_ifIXsr9__is_charIT_EE7__valueEbE6__typeERKNSt7__cxx1112basic_stringIS2_St11char_traitsIS2_ESaIS2_EEESC_.exit.i ], [ %.pre.i, %_ZSteqIcEN9__gnu_cxx11__enable_ifIXsr9__is_charIT_EE7__valueEbE6__typeERKNSt7__cxx1112basic_stringIS2_St11char_traitsIS2_ESaIS2_EEESC_.exit.thread._ZSteqIcEN9__gnu_cxx11__enable_ifIXsr9__is_charIT_EE7__valueEbE6__typeERKNSt7__cxx1112basic_stringIS2_St11char_traitsIS2_ESaIS2_EEESC_.exit.thread10_crit_edge.i ]
  %40 = getelementptr inbounds nuw i8, ptr %.015.i, i64 8
  %.not.i.i.i = icmp eq ptr %39, null
  %41 = select i1 %.not.i.i.i, ptr %4, ptr %39
  %42 = getelementptr inbounds nuw ptr, ptr %41, i64 %38
  %.not.i = icmp eq ptr %40, %42
  br i1 %.not.i, label %_ZN4pbrt19ParameterDictionary6removeERKNSt7__cxx1112basic_stringIcSt11char_traitsIcESaIcEEEPKc.exit, label %10, !llvm.loop !292

_ZN4pbrt19ParameterDictionary6removeERKNSt7__cxx1112basic_stringIcSt11char_traitsIcESaIcEEEPKc.exit: ; preds = %_ZSteqIcEN9__gnu_cxx11__enable_ifIXsr9__is_charIT_EE7__valueEbE6__typeERKNSt7__cxx1112basic_stringIS2_St11char_traitsIS2_ESaIS2_EEESC_.exit.thread10.i, %2, %_ZN4pbrt13InlinedVectorIPNS_15ParsedParameterELi8EN4pstd3pmr21polymorphic_allocatorIS2_EEE5eraseEPKS2_.exit.i
  ret void
}